target datalayout = "e-m:e-p270:32:32-p271:32:32-p272:64:64-i64:64-i128:128-f80:128-n8:16:32:64-S128"
target triple = "x86_64-pc-linux-gnu"

%"class.cv::Affine3" = type { %"class.cv::Matx.0" }
%"class.cv::Matx.0" = type { [16 x float] }
%"class.cv::Point3_" = type { i32, i32, i32 }
%"class.cv::Point3_.1" = type { float, float, float }
%"class.cv::Vec.2" = type { %"class.cv::Matx.3" }
%"class.cv::Matx.3" = type { [4 x i32] }
%"class.cv::Vec.4" = type { %"class.cv::Matx.5" }
%"class.cv::Matx.5" = type { [8 x i32] }
%"class.cv::dynafu::TSDFVolume" = type <{ ptr, float, float, %"class.cv::Point3_", float, %"class.cv::Affine3", float, %"class.cv::Point3_.1", float, %"class.cv::Vec.2", %"class.cv::Vec.4", [4 x i8] }>
%"class.cv::Mat" = type { i32, i32, i32, i32, ptr, ptr, ptr, ptr, ptr, ptr, %"struct.cv::MatSize", %"struct.cv::MatStep" }
%"struct.cv::MatSize" = type { ptr }
%"struct.cv::MatStep" = type { ptr, [2 x i64] }
%"class.cv::dynafu::TSDFVolumeCPU" = type { %"class.cv::dynafu::TSDFVolume.base", %"class.cv::Mat" }
%"class.cv::dynafu::TSDFVolume.base" = type <{ ptr, float, float, %"class.cv::Point3_", float, %"class.cv::Affine3", float, %"class.cv::Point3_.1", float, %"class.cv::Vec.2", %"class.cv::Vec.4" }>

; Function Attrs: mustprogress nounwind uwtable
define linkonce_odr hidden void @_ZN2cv6dynafu10TSDFVolumeD2Ev(ptr noundef nonnull align 8 dereferenceable(164) %0) unnamed_addr #11 comdat align 2 {
  %2 = alloca ptr, align 8
  store ptr %0, ptr %2, align 8, !tbaa !10
  ret void
}

; Function Attrs: inlinehint mustprogress nounwind uwtable
define internal noundef i32 @_ZN2cvL7rawTypeINS_6dynafu5VoxelEEEiv() #8 {
  %1 = alloca i32, align 4
  call void @llvm.lifetime.start.p0(i64 4, ptr %1) #3
  store i32 92, ptr %1, align 4, !tbaa !12
  call void @llvm.lifetime.end.p0(i64 4, ptr %1) #3
  ret i32 728
}

; Function Attrs: mustprogress uwtable
define hidden void @_ZN2cv6dynafu13TSDFVolumeCPUC2ENS_7Point3_IiEEfNS_7Affine3IfEEfifb(ptr noundef nonnull align 8 dereferenceable(264) %0, i64 %1, i32 %2, float noundef %3, ptr noundef byval(%"class.cv::Affine3") align 8 %4, float noundef %5, i32 noundef %6, float noundef %7, i1 noundef zeroext %8) unnamed_addr #9 align 2 personality ptr @__gxx_personality_v0 {
  %10 = alloca %"class.cv::Point3_", align 4
  %11 = alloca { i64, i32 }, align 4
  %12 = alloca ptr, align 8
  %13 = alloca float, align 4
  %14 = alloca float, align 4
  %15 = alloca i32, align 4
  %16 = alloca float, align 4
  %17 = alloca i8, align 1
  %18 = alloca %"class.cv::Point3_", align 4
  %19 = alloca %"class.cv::Affine3", align 8
  %20 = alloca { i64, i32 }, align 4
  %21 = alloca %"class.cv::Mat", align 8
  %22 = alloca ptr, align 8
  %23 = alloca i32, align 4
  %24 = getelementptr inbounds nuw { i64, i32 }, ptr %11, i32 0, i32 0
  store i64 %1, ptr %24, align 4
  %25 = getelementptr inbounds nuw { i64, i32 }, ptr %11, i32 0, i32 1
  store i32 %2, ptr %25, align 4
  call void @llvm.memcpy.p0.p0.i64(ptr align 4 %10, ptr align 4 %11, i64 12, i1 false)
  store ptr %0, ptr %12, align 8, !tbaa !61
  store float %3, ptr %13, align 4, !tbaa !8
  store float %5, ptr %14, align 4, !tbaa !8
  store i32 %6, ptr %15, align 4, !tbaa !12
  store float %7, ptr %16, align 4, !tbaa !8
  %26 = zext i1 %8 to i8
  store i8 %26, ptr %17, align 1, !tbaa !14
  %27 = load ptr, ptr %12, align 8
  call void @llvm.memcpy.p0.p0.i64(ptr align 4 %18, ptr align 4 %10, i64 12, i1 false), !tbaa.struct !29
  %28 = load float, ptr %13, align 4, !tbaa !8
  call void @llvm.memcpy.p0.p0.i64(ptr align 4 %19, ptr align 8 %4, i64 64, i1 false), !tbaa.struct !31
  %29 = load float, ptr %14, align 4, !tbaa !8
  %30 = load i32, ptr %15, align 4, !tbaa !12
  %31 = load float, ptr %16, align 4, !tbaa !8
  %32 = load i8, ptr %17, align 1, !tbaa !14, !range !36, !noundef !37
  %33 = trunc i8 %32 to i1
  call void @llvm.memcpy.p0.p0.i64(ptr align 4 %20, ptr align 4 %18, i64 12, i1 false)
  %34 = getelementptr inbounds nuw { i64, i32 }, ptr %20, i32 0, i32 0
  %35 = load i64, ptr %34, align 4
  %36 = getelementptr inbounds nuw { i64, i32 }, ptr %20, i32 0, i32 1
  %37 = load i32, ptr %36, align 4
  call void @_ZN2cv6dynafu10TSDFVolumeC2ENS_7Point3_IiEEfNS_7Affine3IfEEfifb(ptr noundef nonnull align 8 dereferenceable(164) %27, i64 %35, i32 %37, float noundef %28, ptr noundef byval(%"class.cv::Affine3") align 8 %19, float noundef %29, i32 noundef %30, float noundef %31, i1 noundef zeroext %33)
  store ptr getelementptr inbounds inrange(-16, 72) ({ [11 x ptr] }, ptr @_ZTVN2cv6dynafu13TSDFVolumeCPUE, i32 0, i32 0, i32 2), ptr %27, align 8, !tbaa !16
  %38 = getelementptr inbounds nuw %"class.cv::dynafu::TSDFVolumeCPU", ptr %27, i32 0, i32 1
  call void @_ZN2cv3MatC1Ev(ptr noundef nonnull align 8 dereferenceable(96) %38) #3
  call void @llvm.lifetime.start.p0(i64 96, ptr %21) #3
  %39 = getelementptr inbounds nuw %"class.cv::dynafu::TSDFVolume", ptr %27, i32 0, i32 3
  %40 = getelementptr inbounds nuw %"class.cv::Point3_", ptr %39, i32 0, i32 0
  %41 = load i32, ptr %40, align 8, !tbaa !40
  %42 = getelementptr inbounds nuw %"class.cv::dynafu::TSDFVolume", ptr %27, i32 0, i32 3
  %43 = getelementptr inbounds nuw %"class.cv::Point3_", ptr %42, i32 0, i32 1
  %44 = load i32, ptr %43, align 4, !tbaa !39
  %45 = mul nsw i32 %41, %44
  %46 = getelementptr inbounds nuw %"class.cv::dynafu::TSDFVolume", ptr %27, i32 0, i32 3
  %47 = getelementptr inbounds nuw %"class.cv::Point3_", ptr %46, i32 0, i32 2
  %48 = load i32, ptr %47, align 8, !tbaa !38
  %49 = mul nsw i32 %45, %48
  %50 = invoke noundef i32 @_ZN2cvL7rawTypeINS_6dynafu5VoxelEEEiv()
          to label %51 unwind label %60

51:                                               ; preds = %9
  invoke void @_ZN2cv3MatC1Eiii(ptr noundef nonnull align 8 dereferenceable(96) %21, i32 noundef 1, i32 noundef %49, i32 noundef %50)
          to label %52 unwind label %60

52:                                               ; preds = %51
  %53 = getelementptr inbounds nuw %"class.cv::dynafu::TSDFVolumeCPU", ptr %27, i32 0, i32 1
  %54 = invoke noundef nonnull align 8 dereferenceable(96) ptr @_ZN2cv3MataSEOS0_(ptr noundef nonnull align 8 dereferenceable(96) %53, ptr noundef nonnull align 8 dereferenceable(96) %21)
          to label %55 unwind label %64

55:                                               ; preds = %52
  call void @_ZN2cv3MatD1Ev(ptr noundef nonnull align 8 dereferenceable(96) %21) #3
  call void @llvm.lifetime.end.p0(i64 96, ptr %21) #3
  %56 = load ptr, ptr %27, align 8, !tbaa !16
  %57 = getelementptr inbounds ptr, ptr %56, i64 5
  %58 = load ptr, ptr %57, align 8
  invoke void %58(ptr noundef nonnull align 8 dereferenceable(264) %27)
          to label %59 unwind label %69

59:                                               ; preds = %55
  ret void

60:                                               ; preds = %51, %9
  %61 = landingpad { ptr, i32 }
          cleanup
  %62 = extractvalue { ptr, i32 } %61, 0
  store ptr %62, ptr %22, align 8
  %63 = extractvalue { ptr, i32 } %61, 1
  store i32 %63, ptr %23, align 4
  br label %68

64:                                               ; preds = %52
  %65 = landingpad { ptr, i32 }
          cleanup
  %66 = extractvalue { ptr, i32 } %65, 0
  store ptr %66, ptr %22, align 8
  %67 = extractvalue { ptr, i32 } %65, 1
  store i32 %67, ptr %23, align 4
  call void @_ZN2cv3MatD1Ev(ptr noundef nonnull align 8 dereferenceable(96) %21) #3
  br label %68

68:                                               ; preds = %64, %60
  call void @llvm.lifetime.end.p0(i64 96, ptr %21) #3
  br label %73

69:                                               ; preds = %55
  %70 = landingpad { ptr, i32 }
          cleanup
  %71 = extractvalue { ptr, i32 } %70, 0
  store ptr %71, ptr %22, align 8
  %72 = extractvalue { ptr, i32 } %70, 1
  store i32 %72, ptr %23, align 4
  br label %73

73:                                               ; preds = %69, %68
  call void @_ZN2cv3MatD1Ev(ptr noundef nonnull align 8 dereferenceable(96) %38) #3
  call void @_ZN2cv6dynafu10TSDFVolumeD2Ev(ptr noundef nonnull align 8 dereferenceable(164) %27) #3
  br label %74

74:                                               ; preds = %73
  %75 = load ptr, ptr %22, align 8
  %76 = load i32, ptr %23, align 4
  %77 = insertvalue { ptr, i32 } poison, ptr %75, 0
  %78 = insertvalue { ptr, i32 } %77, i32 %76, 1
  resume { ptr, i32 } %78
}