; Function Attrs: mustprogress uwtable
define hidden void @_ZN2cv6dynafu13TSDFVolumeCPUC2ENS_7Point3_IiEEfNS_7Affine3IfEEfifb(ptr noundef nonnull align 8 dereferenceable(264) initializes((0, 164)) %0, i64 %1, i32 %2, float noundef %3, ptr noundef readonly byval(%"class.cv::Affine3") align 8 captures(none) %4, float noundef %5, i32 noundef %6, float noundef %7, i1 noundef zeroext %8) unnamed_addr #6 align 2 personality ptr @__gxx_personality_v0 {
  %10 = alloca %"class.cv::Mat", align 8
  tail call void @_ZN2cv6dynafu10TSDFVolumeC2ENS_7Point3_IiEEfNS_7Affine3IfEEfifb(ptr noundef nonnull align 8 dereferenceable(164) %0, i64 %1, i32 %2, float noundef %3, ptr noundef nonnull byval(%"class.cv::Affine3") align 8 %4, float noundef %5, i32 noundef %6, float noundef %7, i1 noundef zeroext %8)
  store ptr getelementptr inbounds nuw inrange(-16, 72) (i8, ptr @_ZTVN2cv6dynafu13TSDFVolumeCPUE, i64 16), ptr %0, align 8, !tbaa !3
  %11 = getelementptr inbounds nuw i8, ptr %0, i64 168
  tail call void @_ZN2cv3MatC1Ev(ptr noundef nonnull align 8 dereferenceable(96) %11) #31
  call void @llvm.lifetime.start.p0(i64 96, ptr nonnull %10) #31
  %12 = getelementptr inbounds nuw i8, ptr %0, i64 16
  %13 = load i32, ptr %12, align 8, !tbaa !29
  %14 = getelementptr inbounds nuw i8, ptr %0, i64 20
  %15 = load i32, ptr %14, align 4, !tbaa !30
  %16 = mul nsw i32 %15, %13
  %17 = getelementptr inbounds nuw i8, ptr %0, i64 24
  %18 = load i32, ptr %17, align 8, !tbaa !31
  %19 = mul nsw i32 %16, %18
  invoke void @_ZN2cv3MatC1Eiii(ptr noundef nonnull align 8 dereferenceable(96) %10, i32 noundef 1, i32 noundef %19, i32 noundef 728)
          to label %20 unwind label %27

20:                                               ; preds = %9
  %21 = invoke noundef nonnull align 8 dereferenceable(96) ptr @_ZN2cv3MataSEOS0_(ptr noundef nonnull align 8 dereferenceable(96) %11, ptr noundef nonnull align 8 dereferenceable(96) %10)
          to label %22 unwind label %29

22:                                               ; preds = %20
  call void @_ZN2cv3MatD1Ev(ptr noundef nonnull align 8 dereferenceable(96) %10) #31
  call void @llvm.lifetime.end.p0(i64 96, ptr nonnull %10) #31
  %23 = load ptr, ptr %0, align 8, !tbaa !3
  %24 = getelementptr inbounds nuw i8, ptr %23, i64 40
  %25 = load ptr, ptr %24, align 8
  invoke void %25(ptr noundef nonnull align 8 dereferenceable(264) %0)
          to label %26 unwind label %32

26:                                               ; preds = %22
  ret void

27:                                               ; preds = %9
  %28 = landingpad { ptr, i32 }
          cleanup
  br label %31

29:                                               ; preds = %20
  %30 = landingpad { ptr, i32 }
          cleanup
  call void @_ZN2cv3MatD1Ev(ptr noundef nonnull align 8 dereferenceable(96) %10) #31
  br label %31

31:                                               ; preds = %29, %27
  %.pn = phi { ptr, i32 } [ %30, %29 ], [ %28, %27 ]
  call void @llvm.lifetime.end.p0(i64 96, ptr nonnull %10) #31
  br label %34

32:                                               ; preds = %22
  %33 = landingpad { ptr, i32 }
          cleanup
  br label %34

34:                                               ; preds = %32, %31
  %.pn16 = phi { ptr, i32 } [ %33, %32 ], [ %.pn, %31 ]
  call void @_ZN2cv3MatD1Ev(ptr noundef nonnull align 8 dereferenceable(96) %11) #31
  resume { ptr, i32 } %.pn16
}